target datalayout = "e-m:e-p270:32:32-p271:32:32-p272:64:64-i64:64-i128:128-f80:128-n8:16:32:64-S128"
target triple = "x86_64-pc-linux-gnu"

%struct.FunctionCallInfoBaseData = type { ptr, ptr, ptr, i32, i8, i16, [0 x %struct.NullableDatum] }
%struct.NullableDatum = type { i64, i8 }

@.str.1 = private unnamed_addr constant [7 x i8] c"enum.c\00", align 1
@.str.3 = private unnamed_addr constant [37 x i8] c"could not determine actual enum type\00", align 1
@__func__.enum_first = private unnamed_addr constant [11 x i8] c"enum_first\00", align 1
@.str.4 = private unnamed_addr constant [27 x i8] c"enum %s contains no values\00", align 1

; Function Attrs: inlinehint nounwind uwtable
define internal i64 @ObjectIdGetDatum(i32 noundef %0) #2 {
  %2 = alloca i32, align 4
  store i32 %0, ptr %2, align 4
  %3 = load i32, ptr %2, align 4
  %4 = zext i32 %3 to i64
  ret i64 %4
}

; Function Attrs: nounwind uwtable
define dso_local i64 @enum_first(ptr noundef %0) #0 {
  %2 = alloca ptr, align 8
  %3 = alloca i32, align 4
  %4 = alloca i32, align 4
  store ptr %0, ptr %2, align 8
  call void @llvm.lifetime.start.p0(i64 4, ptr %3) #6
  call void @llvm.lifetime.start.p0(i64 4, ptr %4) #6
  %5 = load ptr, ptr %2, align 8
  %6 = getelementptr inbounds nuw %struct.FunctionCallInfoBaseData, ptr %5, i32 0, i32 0
  %7 = load ptr, ptr %6, align 8
  %8 = call i32 @get_fn_expr_argtype(ptr noundef %7, i32 noundef 0)
  store i32 %8, ptr %3, align 4
  %9 = load i32, ptr %3, align 4
  %10 = icmp eq i32 %9, 0
  br i1 %10, label %11, label %23

11:                                               ; preds = %1
  br label %12

12:                                               ; preds = %11
  br i1 true, label %13, label %15

13:                                               ; preds = %12
  %14 = call zeroext i1 @errstart_cold(i32 noundef 21, ptr noundef null) #8
  br i1 %14, label %17, label %20

15:                                               ; preds = %12
  %16 = call zeroext i1 @errstart(i32 noundef 21, ptr noundef null)
  br i1 %16, label %17, label %20

17:                                               ; preds = %15, %13
  %18 = call i32 @errcode(i32 noundef 1088)
  %19 = call i32 (ptr, ...) @errmsg(ptr noundef @.str.3)
  call void @errfinish(ptr noundef @.str.1, i32 noundef 451, ptr noundef @__func__.enum_first)
  br label %20

20:                                               ; preds = %17, %15, %13
  unreachable

21:                                               ; No predecessors!
  br label %22

22:                                               ; preds = %21
  br label %23

23:                                               ; preds = %22, %1
  %24 = load i32, ptr %3, align 4
  %25 = call i32 @enum_endpoint(i32 noundef %24, i32 noundef 1)
  store i32 %25, ptr %4, align 4
  %26 = load i32, ptr %4, align 4
  %27 = icmp ne i32 %26, 0
  br i1 %27, label %42, label %28

28:                                               ; preds = %23
  br label %29

29:                                               ; preds = %28
  br i1 true, label %30, label %32

30:                                               ; preds = %29
  %31 = call zeroext i1 @errstart_cold(i32 noundef 21, ptr noundef null) #8
  br i1 %31, label %34, label %39

32:                                               ; preds = %29
  %33 = call zeroext i1 @errstart(i32 noundef 21, ptr noundef null)
  br i1 %33, label %34, label %39

34:                                               ; preds = %32, %30
  %35 = call i32 @errcode(i32 noundef 325)
  %36 = load i32, ptr %3, align 4
  %37 = call ptr @format_type_be(i32 noundef %36)
  %38 = call i32 (ptr, ...) @errmsg(ptr noundef @.str.4, ptr noundef %37)
  call void @errfinish(ptr noundef @.str.1, i32 noundef 460, ptr noundef @__func__.enum_first)
  br label %39

39:                                               ; preds = %34, %32, %30
  unreachable

40:                                               ; No predecessors!
  br label %41

41:                                               ; preds = %40
  br label %42

42:                                               ; preds = %41, %23
  %43 = load i32, ptr %4, align 4
  %44 = call i64 @ObjectIdGetDatum(i32 noundef %43)
  call void @llvm.lifetime.end.p0(i64 4, ptr %4) #6
  call void @llvm.lifetime.end.p0(i64 4, ptr %3) #6
  ret i64 %44
}